target datalayout = "e-m:e-p270:32:32-p271:32:32-p272:64:64-i64:64-i128:128-f80:128-n8:16:32:64-S128"
target triple = "x86_64-pc-linux-gnu"

%struct.bignum_st = type { ptr, i32, i32, i32, i32 }

; Function Attrs: inlinehint nounwind uwtable
define internal void @bn_div_rem_words(ptr noundef %0, ptr noundef %1, i64 noundef %2, i64 noundef %3, i64 noundef %4) #3 {
  %6 = alloca ptr, align 8
  %7 = alloca ptr, align 8
  %8 = alloca i64, align 8
  %9 = alloca i64, align 8
  %10 = alloca i64, align 8
  store ptr %0, ptr %6, align 8, !tbaa !26
  store ptr %1, ptr %7, align 8, !tbaa !26
  store i64 %2, ptr %8, align 8, !tbaa !19
  store i64 %3, ptr %9, align 8, !tbaa !19
  store i64 %4, ptr %10, align 8, !tbaa !19
  %11 = load ptr, ptr %6, align 8, !tbaa !26
  %12 = load ptr, ptr %7, align 8, !tbaa !26
  %13 = load i64, ptr %9, align 8, !tbaa !19
  %14 = load i64, ptr %8, align 8, !tbaa !19
  %15 = load i64, ptr %10, align 8, !tbaa !19
  %16 = call { i64, i64 } asm sideeffect "divq $4", "={ax},={dx},{ax},{dx},imr,~{cc},~{dirflag},~{fpsr},~{flags}"(i64 %13, i64 %14, i64 %15) #4, !srcloc !30
  %17 = extractvalue { i64, i64 } %16, 0
  %18 = extractvalue { i64, i64 } %16, 1
  store i64 %17, ptr %11, align 8, !tbaa !19
  store i64 %18, ptr %12, align 8, !tbaa !19
  ret void
}

; Function Attrs: nounwind uwtable
define hidden i64 @BN_div_word(ptr noundef %0, i64 noundef %1) #0 {
  %3 = alloca i64, align 8
  %4 = alloca ptr, align 8
  %5 = alloca i64, align 8
  %6 = alloca i64, align 8
  %7 = alloca i32, align 4
  %8 = alloca i32, align 4
  %9 = alloca i32, align 4
  %10 = alloca i64, align 8
  %11 = alloca i64, align 8
  %12 = alloca i64, align 8
  store ptr %0, ptr %4, align 8, !tbaa !6
  store i64 %1, ptr %5, align 8, !tbaa !19
  call void @llvm.lifetime.start.p0(i64 8, ptr %6) #4
  store i64 0, ptr %6, align 8, !tbaa !19
  call void @llvm.lifetime.start.p0(i64 4, ptr %7) #4
  call void @llvm.lifetime.start.p0(i64 4, ptr %8) #4
  %13 = load i64, ptr %5, align 8, !tbaa !19
  %14 = and i64 %13, -1
  store i64 %14, ptr %5, align 8, !tbaa !19
  %15 = load i64, ptr %5, align 8, !tbaa !19
  %16 = icmp ne i64 %15, 0
  br i1 %16, label %18, label %17

17:                                               ; preds = %2
  store i64 -1, ptr %3, align 8
  store i32 1, ptr %9, align 4
  br label %102

18:                                               ; preds = %2
  %19 = load ptr, ptr %4, align 8, !tbaa !6
  %20 = getelementptr inbounds nuw %struct.bignum_st, ptr %19, i32 0, i32 1
  %21 = load i32, ptr %20, align 8, !tbaa !15
  %22 = icmp eq i32 %21, 0
  br i1 %22, label %23, label %24

23:                                               ; preds = %18
  store i64 0, ptr %3, align 8
  store i32 1, ptr %9, align 4
  br label %102

24:                                               ; preds = %18
  %25 = load i64, ptr %5, align 8, !tbaa !19
  %26 = call i32 @BN_num_bits_word(i64 noundef %25)
  %27 = sub i32 64, %26
  store i32 %27, ptr %8, align 4, !tbaa !13
  %28 = load i32, ptr %8, align 4, !tbaa !13
  %29 = load i64, ptr %5, align 8, !tbaa !19
  %30 = zext i32 %28 to i64
  %31 = shl i64 %29, %30
  store i64 %31, ptr %5, align 8, !tbaa !19
  %32 = load ptr, ptr %4, align 8, !tbaa !6
  %33 = load ptr, ptr %4, align 8, !tbaa !6
  %34 = load i32, ptr %8, align 4, !tbaa !13
  %35 = call i32 @BN_lshift(ptr noundef %32, ptr noundef %33, i32 noundef %34)
  %36 = icmp ne i32 %35, 0
  br i1 %36, label %38, label %37

37:                                               ; preds = %24
  store i64 -1, ptr %3, align 8
  store i32 1, ptr %9, align 4
  br label %102

38:                                               ; preds = %24
  %39 = load ptr, ptr %4, align 8, !tbaa !6
  %40 = getelementptr inbounds nuw %struct.bignum_st, ptr %39, i32 0, i32 1
  %41 = load i32, ptr %40, align 8, !tbaa !15
  %42 = sub nsw i32 %41, 1
  store i32 %42, ptr %7, align 4, !tbaa !13
  br label %43

43:                                               ; preds = %71, %38
  %44 = load i32, ptr %7, align 4, !tbaa !13
  %45 = icmp sge i32 %44, 0
  br i1 %45, label %46, label %74

46:                                               ; preds = %43
  call void @llvm.lifetime.start.p0(i64 8, ptr %10) #4
  %47 = load ptr, ptr %4, align 8, !tbaa !6
  %48 = getelementptr inbounds nuw %struct.bignum_st, ptr %47, i32 0, i32 0
  %49 = load ptr, ptr %48, align 8, !tbaa !18
  %50 = load i32, ptr %7, align 4, !tbaa !13
  %51 = sext i32 %50 to i64
  %52 = getelementptr inbounds i64, ptr %49, i64 %51
  %53 = load i64, ptr %52, align 8, !tbaa !19
  store i64 %53, ptr %10, align 8, !tbaa !19
  call void @llvm.lifetime.start.p0(i64 8, ptr %11) #4
  call void @llvm.lifetime.start.p0(i64 8, ptr %12) #4
  %54 = load i64, ptr %6, align 8, !tbaa !19
  %55 = load i64, ptr %10, align 8, !tbaa !19
  %56 = load i64, ptr %5, align 8, !tbaa !19
  call void @bn_div_rem_words(ptr noundef %11, ptr noundef %12, i64 noundef %54, i64 noundef %55, i64 noundef %56)
  %57 = load i64, ptr %10, align 8, !tbaa !19
  %58 = load i64, ptr %11, align 8, !tbaa !19
  %59 = load i64, ptr %5, align 8, !tbaa !19
  %60 = mul i64 %58, %59
  %61 = and i64 %60, -1
  %62 = sub i64 %57, %61
  %63 = and i64 %62, -1
  store i64 %63, ptr %6, align 8, !tbaa !19
  %64 = load i64, ptr %11, align 8, !tbaa !19
  %65 = load ptr, ptr %4, align 8, !tbaa !6
  %66 = getelementptr inbounds nuw %struct.bignum_st, ptr %65, i32 0, i32 0
  %67 = load ptr, ptr %66, align 8, !tbaa !18
  %68 = load i32, ptr %7, align 4, !tbaa !13
  %69 = sext i32 %68 to i64
  %70 = getelementptr inbounds i64, ptr %67, i64 %69
  store i64 %64, ptr %70, align 8, !tbaa !19
  call void @llvm.lifetime.end.p0(i64 8, ptr %12) #4
  call void @llvm.lifetime.end.p0(i64 8, ptr %11) #4
  call void @llvm.lifetime.end.p0(i64 8, ptr %10) #4
  br label %71

71:                                               ; preds = %46
  %72 = load i32, ptr %7, align 4, !tbaa !13
  %73 = add nsw i32 %72, -1
  store i32 %73, ptr %7, align 4, !tbaa !13
  br label %43, !llvm.loop !32

74:                                               ; preds = %43
  %75 = load ptr, ptr %4, align 8, !tbaa !6
  %76 = getelementptr inbounds nuw %struct.bignum_st, ptr %75, i32 0, i32 1
  %77 = load i32, ptr %76, align 8, !tbaa !15
  %78 = icmp sgt i32 %77, 0
  br i1 %78, label %79, label %96

79:                                               ; preds = %74
  %80 = load ptr, ptr %4, align 8, !tbaa !6
  %81 = getelementptr inbounds nuw %struct.bignum_st, ptr %80, i32 0, i32 0
  %82 = load ptr, ptr %81, align 8, !tbaa !18
  %83 = load ptr, ptr %4, align 8, !tbaa !6
  %84 = getelementptr inbounds nuw %struct.bignum_st, ptr %83, i32 0, i32 1
  %85 = load i32, ptr %84, align 8, !tbaa !15
  %86 = sub nsw i32 %85, 1
  %87 = sext i32 %86 to i64
  %88 = getelementptr inbounds i64, ptr %82, i64 %87
  %89 = load i64, ptr %88, align 8, !tbaa !19
  %90 = icmp eq i64 %89, 0
  br i1 %90, label %91, label %96

91:                                               ; preds = %79
  %92 = load ptr, ptr %4, align 8, !tbaa !6
  %93 = getelementptr inbounds nuw %struct.bignum_st, ptr %92, i32 0, i32 1
  %94 = load i32, ptr %93, align 8, !tbaa !15
  %95 = add nsw i32 %94, -1
  store i32 %95, ptr %93, align 8, !tbaa !15
  br label %96

96:                                               ; preds = %91, %79, %74
  %97 = load i32, ptr %8, align 4, !tbaa !13
  %98 = load i64, ptr %6, align 8, !tbaa !19
  %99 = zext i32 %97 to i64
  %100 = lshr i64 %98, %99
  store i64 %100, ptr %6, align 8, !tbaa !19
  %101 = load i64, ptr %6, align 8, !tbaa !19
  store i64 %101, ptr %3, align 8
  store i32 1, ptr %9, align 4
  br label %102

102:                                              ; preds = %96, %37, %23, %17
  call void @llvm.lifetime.end.p0(i64 4, ptr %8) #4
  call void @llvm.lifetime.end.p0(i64 4, ptr %7) #4
  call void @llvm.lifetime.end.p0(i64 8, ptr %6) #4
  %103 = load i64, ptr %3, align 8
  ret i64 %103
}