; Function Attrs: nounwind uwtable
define hidden i64 @BN_div_word(ptr noundef %0, i64 noundef %1) local_unnamed_addr #0 {
  %.not = icmp eq i64 %1, 0
  br i1 %.not, label %38, label %3

3:                                                ; preds = %2
  %4 = getelementptr inbounds nuw i8, ptr %0, i64 8
  %5 = load i32, ptr %4, align 8, !tbaa !6
  %6 = icmp eq i32 %5, 0
  br i1 %6, label %38, label %7

7:                                                ; preds = %3
  %8 = tail call i32 @BN_num_bits_word(i64 noundef %1) #6
  %9 = sub i32 64, %8
  %10 = zext i32 %9 to i64
  %11 = shl i64 %1, %10
  %12 = tail call i32 @BN_lshift(ptr noundef nonnull %0, ptr noundef nonnull %0, i32 noundef %9) #6
  %.not32 = icmp eq i32 %12, 0
  br i1 %.not32, label %38, label %13

13:                                               ; preds = %7
  %14 = load i32, ptr %4, align 8, !tbaa !6
  %15 = icmp sgt i32 %14, 0
  br i1 %15, label %.lr.ph.preheader, label %._crit_edge.thread

.lr.ph.preheader:                                 ; preds = %13
  %16 = zext nneg i32 %14 to i64
  %.pre = load ptr, ptr %0, align 8, !tbaa !13
  br label %.lr.ph

.lr.ph:                                           ; preds = %.lr.ph.preheader, %.lr.ph
  %17 = phi ptr [ %.pre, %.lr.ph.preheader ], [ %24, %.lr.ph ]
  %indvars.iv = phi i64 [ %16, %.lr.ph.preheader ], [ %indvars.iv.next, %.lr.ph ]
  %.02933 = phi i64 [ 0, %.lr.ph.preheader ], [ %23, %.lr.ph ]
  %indvars.iv.next = add nsw i64 %indvars.iv, -1
  %18 = getelementptr inbounds nuw i64, ptr %17, i64 %indvars.iv.next
  %19 = load i64, ptr %18, align 8, !tbaa !14
  %20 = tail call { i64, i64 } asm sideeffect "divq $4", "={ax},={dx},{ax},{dx},imr,~{cc},~{dirflag},~{fpsr},~{flags}"(i64 %19, i64 %.02933, i64 %11) #6, !srcloc !19
  %21 = extractvalue { i64, i64 } %20, 0
  %22 = mul i64 %21, %11
  %23 = sub i64 %19, %22
  %24 = load ptr, ptr %0, align 8, !tbaa !13
  %25 = getelementptr inbounds nuw i64, ptr %24, i64 %indvars.iv.next
  store i64 %21, ptr %25, align 8, !tbaa !14
  %26 = icmp samesign ugt i64 %indvars.iv, 1
  br i1 %26, label %.lr.ph, label %._crit_edge, !llvm.loop !23

._crit_edge:                                      ; preds = %.lr.ph
  %.pre36 = load i32, ptr %4, align 8, !tbaa !6
  %27 = icmp sgt i32 %.pre36, 0
  br i1 %27, label %28, label %._crit_edge.thread

28:                                               ; preds = %._crit_edge
  %29 = load ptr, ptr %0, align 8, !tbaa !13
  %30 = zext nneg i32 %.pre36 to i64
  %31 = getelementptr i64, ptr %29, i64 %30
  %32 = getelementptr i8, ptr %31, i64 -8
  %33 = load i64, ptr %32, align 8, !tbaa !14
  %34 = icmp eq i64 %33, 0
  br i1 %34, label %35, label %._crit_edge.thread

35:                                               ; preds = %28
  %36 = add nsw i32 %.pre36, -1
  store i32 %36, ptr %4, align 8, !tbaa !6
  br label %._crit_edge.thread

._crit_edge.thread:                               ; preds = %13, %35, %28, %._crit_edge
  %.029.lcssa38 = phi i64 [ %23, %35 ], [ %23, %28 ], [ %23, %._crit_edge ], [ 0, %13 ]
  %37 = lshr i64 %.029.lcssa38, %10
  br label %38

38:                                               ; preds = %7, %3, %2, %._crit_edge.thread
  %.0 = phi i64 [ %37, %._crit_edge.thread ], [ -1, %2 ], [ 0, %3 ], [ -1, %7 ]
  ret i64 %.0
}